; ModuleID = '23/218.c'
source_filename = "23/218.c"
target datalayout = "e-m:e-p270:32:32-p271:32:32-p272:64:64-i64:64-f80:128-n8:16:32:64-S128"
target triple = "x86_64-pc-linux-gnu"

@.str = private unnamed_addr constant [2 x i8] c" \00", align 1
@.str.1 = private unnamed_addr constant [2 x i8] zeroinitializer, align 1

; Function Attrs: noinline nounwind uwtable
define dso_local void @main() #0 {
  %1 = alloca [101 x i8], align 16
  %2 = getelementptr inbounds [101 x i8], [101 x i8]* %1, i64 0, i64 0
  %3 = call i32 (i8*, ...) bitcast (i32 (...)* @gets to i32 (i8*, ...)*)(i8* %2)
  %4 = getelementptr inbounds [101 x i8], [101 x i8]* %1, i64 0, i64 0
  call void @turn(i8* %4)
  %5 = getelementptr inbounds [101 x i8], [101 x i8]* %1, i64 0, i64 0
  %6 = call i32 @puts(i8* %5)
  ret void
}

declare dso_local i32 @gets(...) #1

; Function Attrs: noinline nounwind uwtable
define dso_local void @turn(i8* %0) #0 {
  %2 = alloca i8*, align 8
  %3 = alloca [50 x [101 x i8]], align 16
  %4 = alloca [101 x i8], align 16
  %5 = alloca i32, align 4
  %6 = alloca i32, align 4
  %7 = alloca i32, align 4
  %8 = alloca i32, align 4
  %9 = alloca i32, align 4
  store i8* %0, i8** %2, align 8
  %10 = bitcast [101 x i8]* %4 to i8*
  call void @llvm.memset.p0i8.i64(i8* align 16 %10, i8 0, i64 101, i1 false)
  store i32 0, i32* %6, align 4
  %11 = load i8*, i8** %2, align 8
  %12 = call i64 @strlen(i8* %11) #5
  %13 = trunc i64 %12 to i32
  store i32 %13, i32* %9, align 4
  store i32 0, i32* %5, align 4
  br label %14

14:                                               ; preds = %77, %1
  %15 = load i32, i32* %5, align 4
  %16 = load i32, i32* %9, align 4
  %17 = icmp slt i32 %15, %16
  br i1 %17, label %18, label %80

18:                                               ; preds = %14
  %19 = load i8*, i8** %2, align 8
  %20 = load i32, i32* %5, align 4
  %21 = sext i32 %20 to i64
  %22 = getelementptr inbounds i8, i8* %19, i64 %21
  %23 = load i8, i8* %22, align 1
  %24 = sext i8 %23 to i32
  %25 = icmp eq i32 %24, 32
  br i1 %25, label %26, label %76

26:                                               ; preds = %18
  %27 = load i32, i32* %5, align 4
  store i32 %27, i32* %7, align 4
  br label %28

28:                                               ; preds = %42, %26
  %29 = load i8*, i8** %2, align 8
  %30 = load i32, i32* %7, align 4
  %31 = sub nsw i32 %30, 1
  %32 = sext i32 %31 to i64
  %33 = getelementptr inbounds i8, i8* %29, i64 %32
  %34 = load i8, i8* %33, align 1
  %35 = sext i8 %34 to i32
  %36 = icmp ne i32 %35, 32
  br i1 %36, label %37, label %40

37:                                               ; preds = %28
  %38 = load i32, i32* %7, align 4
  %39 = icmp ne i32 %38, 0
  br label %40

40:                                               ; preds = %37, %28
  %41 = phi i1 [ false, %28 ], [ %39, %37 ]
  br i1 %41, label %42, label %45

42:                                               ; preds = %40
  %43 = load i32, i32* %7, align 4
  %44 = add nsw i32 %43, -1
  store i32 %44, i32* %7, align 4
  br label %28

45:                                               ; preds = %40
  store i32 0, i32* %8, align 4
  br label %46

46:                                               ; preds = %62, %45
  %47 = load i32, i32* %7, align 4
  %48 = load i32, i32* %5, align 4
  %49 = icmp slt i32 %47, %48
  br i1 %49, label %50, label %67

50:                                               ; preds = %46
  %51 = load i8*, i8** %2, align 8
  %52 = load i32, i32* %7, align 4
  %53 = sext i32 %52 to i64
  %54 = getelementptr inbounds i8, i8* %51, i64 %53
  %55 = load i8, i8* %54, align 1
  %56 = load i32, i32* %6, align 4
  %57 = sext i32 %56 to i64
  %58 = getelementptr inbounds [50 x [101 x i8]], [50 x [101 x i8]]* %3, i64 0, i64 %57
  %59 = load i32, i32* %8, align 4
  %60 = sext i32 %59 to i64
  %61 = getelementptr inbounds [101 x i8], [101 x i8]* %58, i64 0, i64 %60
  store i8 %55, i8* %61, align 1
  br label %62

62:                                               ; preds = %50
  %63 = load i32, i32* %7, align 4
  %64 = add nsw i32 %63, 1
  store i32 %64, i32* %7, align 4
  %65 = load i32, i32* %8, align 4
  %66 = add nsw i32 %65, 1
  store i32 %66, i32* %8, align 4
  br label %46

67:                                               ; preds = %46
  %68 = load i32, i32* %6, align 4
  %69 = sext i32 %68 to i64
  %70 = getelementptr inbounds [50 x [101 x i8]], [50 x [101 x i8]]* %3, i64 0, i64 %69
  %71 = load i32, i32* %8, align 4
  %72 = sext i32 %71 to i64
  %73 = getelementptr inbounds [101 x i8], [101 x i8]* %70, i64 0, i64 %72
  store i8 0, i8* %73, align 1
  %74 = load i32, i32* %6, align 4
  %75 = add nsw i32 %74, 1
  store i32 %75, i32* %6, align 4
  br label %76

76:                                               ; preds = %67, %18
  br label %77

77:                                               ; preds = %76
  %78 = load i32, i32* %5, align 4
  %79 = add nsw i32 %78, 1
  store i32 %79, i32* %5, align 4
  br label %14

80:                                               ; preds = %14
  %81 = load i32, i32* %5, align 4
  store i32 %81, i32* %7, align 4
  br label %82

82:                                               ; preds = %96, %80
  %83 = load i8*, i8** %2, align 8
  %84 = load i32, i32* %7, align 4
  %85 = sub nsw i32 %84, 1
  %86 = sext i32 %85 to i64
  %87 = getelementptr inbounds i8, i8* %83, i64 %86
  %88 = load i8, i8* %87, align 1
  %89 = sext i8 %88 to i32
  %90 = icmp ne i32 %89, 32
  br i1 %90, label %91, label %94

91:                                               ; preds = %82
  %92 = load i32, i32* %7, align 4
  %93 = icmp ne i32 %92, 0
  br label %94

94:                                               ; preds = %91, %82
  %95 = phi i1 [ false, %82 ], [ %93, %91 ]
  br i1 %95, label %96, label %99

96:                                               ; preds = %94
  %97 = load i32, i32* %7, align 4
  %98 = add nsw i32 %97, -1
  store i32 %98, i32* %7, align 4
  br label %82

99:                                               ; preds = %94
  store i32 0, i32* %8, align 4
  br label %100

100:                                              ; preds = %116, %99
  %101 = load i32, i32* %7, align 4
  %102 = load i32, i32* %5, align 4
  %103 = icmp slt i32 %101, %102
  br i1 %103, label %104, label %121

104:                                              ; preds = %100
  %105 = load i8*, i8** %2, align 8
  %106 = load i32, i32* %7, align 4
  %107 = sext i32 %106 to i64
  %108 = getelementptr inbounds i8, i8* %105, i64 %107
  %109 = load i8, i8* %108, align 1
  %110 = load i32, i32* %6, align 4
  %111 = sext i32 %110 to i64
  %112 = getelementptr inbounds [50 x [101 x i8]], [50 x [101 x i8]]* %3, i64 0, i64 %111
  %113 = load i32, i32* %8, align 4
  %114 = sext i32 %113 to i64
  %115 = getelementptr inbounds [101 x i8], [101 x i8]* %112, i64 0, i64 %114
  store i8 %109, i8* %115, align 1
  br label %116

116:                                              ; preds = %104
  %117 = load i32, i32* %7, align 4
  %118 = add nsw i32 %117, 1
  store i32 %118, i32* %7, align 4
  %119 = load i32, i32* %8, align 4
  %120 = add nsw i32 %119, 1
  store i32 %120, i32* %8, align 4
  br label %100

121:                                              ; preds = %100
  %122 = load i32, i32* %6, align 4
  %123 = sext i32 %122 to i64
  %124 = getelementptr inbounds [50 x [101 x i8]], [50 x [101 x i8]]* %3, i64 0, i64 %123
  %125 = load i32, i32* %8, align 4
  %126 = sext i32 %125 to i64
  %127 = getelementptr inbounds [101 x i8], [101 x i8]* %124, i64 0, i64 %126
  store i8 0, i8* %127, align 1
  %128 = load i8*, i8** %2, align 8
  %129 = getelementptr inbounds [101 x i8], [101 x i8]* %4, i64 0, i64 0
  %130 = call i8* @strcpy(i8* %128, i8* %129) #6
  %131 = load i32, i32* %6, align 4
  store i32 %131, i32* %5, align 4
  br label %132

132:                                              ; preds = %144, %121
  %133 = load i32, i32* %5, align 4
  %134 = icmp sgt i32 %133, 0
  br i1 %134, label %135, label %147

135:                                              ; preds = %132
  %136 = load i8*, i8** %2, align 8
  %137 = load i32, i32* %5, align 4
  %138 = sext i32 %137 to i64
  %139 = getelementptr inbounds [50 x [101 x i8]], [50 x [101 x i8]]* %3, i64 0, i64 %138
  %140 = getelementptr inbounds [101 x i8], [101 x i8]* %139, i64 0, i64 0
  %141 = call i8* @strcat(i8* %136, i8* %140) #6
  %142 = load i8*, i8** %2, align 8
  %143 = call i8* @strcat(i8* %142, i8* getelementptr inbounds ([2 x i8], [2 x i8]* @.str, i64 0, i64 0)) #6
  br label %144

144:                                              ; preds = %135
  %145 = load i32, i32* %5, align 4
  %146 = add nsw i32 %145, -1
  store i32 %146, i32* %5, align 4
  br label %132

147:                                              ; preds = %132
  %148 = load i8*, i8** %2, align 8
  %149 = getelementptr inbounds [50 x [101 x i8]], [50 x [101 x i8]]* %3, i64 0, i64 0
  %150 = getelementptr inbounds [101 x i8], [101 x i8]* %149, i64 0, i64 0
  %151 = call i8* @strcat(i8* %148, i8* %150) #6
  %152 = load i8*, i8** %2, align 8
  %153 = call i8* @strcat(i8* %152, i8* getelementptr inbounds ([2 x i8], [2 x i8]* @.str.1, i64 0, i64 0)) #6
  ret void
}

declare dso_local i32 @puts(i8*) #1

; Function Attrs: argmemonly nounwind willreturn
declare void @llvm.memset.p0i8.i64(i8* nocapture writeonly, i8, i64, i1 immarg) #2

; Function Attrs: nounwind readonly
declare dso_local i64 @strlen(i8*) #3

; Function Attrs: nounwind
declare dso_local i8* @strcpy(i8*, i8*) #4

; Function Attrs: nounwind
declare dso_local i8* @strcat(i8*, i8*) #4


!llvm.module.flags = !{!0}
!llvm.ident = !{!1}

!0 = !{i32 1, !"wchar_size", i32 4}
!1 = !{!"clang version 10.0.0-4ubuntu1 "}
